target datalayout = "e-m:e-p270:32:32-p271:32:32-p272:64:64-i64:64-i128:128-f80:128-n8:16:32:64-S128"
target triple = "x86_64-pc-linux-gnu"

%struct.cli_ctx_tag = type { ptr, ptr, ptr, ptr, ptr, ptr, ptr, i64, ptr, i32, i32, ptr, i32, i32, ptr, [16 x i8], ptr, ptr, ptr, ptr, ptr, ptr, %struct.timeval, i8, i8 }
%struct.timeval = type { i64, i64 }
%struct.cl_fmap = type { ptr, ptr, ptr, i64, i64, i64, i64, i8, i8, i8, i64, i64, i64, i64, ptr, ptr, ptr, ptr, ptr, ptr, ptr, i8, [16 x i8], i8, [20 x i8], i8, [32 x i8], ptr, ptr }
%struct.cli_target_info = type { i64, %struct.cli_exe_info, i32 }
%struct.cli_exe_info = type { ptr, i32, i32, i16, i32, i32, %struct.cli_hashset, i32, i32, i32, i32, i32, i32, i32, i32, i32, %struct.pe_image_file_hdr, %union.anon, [16 x %struct.pe_image_data_dir] }
%struct.cli_hashset = type { ptr, ptr, ptr, i32, i32, i32, i32 }
%struct.pe_image_file_hdr = type { i32, i16, i16, i32, i32, i32, i16, i16 }
%union.anon = type { %struct.pe_image_optional_hdr64 }
%struct.pe_image_optional_hdr64 = type { i16, i8, i8, i32, i32, i32, i32, i32, i64, i32, i32, i16, i16, i16, i16, i16, i16, i32, i32, i32, i32, i16, i16, i64, i64, i64, i64, i32, i32 }
%struct.pe_image_data_dir = type { i32, i32 }

; Function Attrs: nounwind uwtable
define void @cli_targetinfo(ptr noundef %0, i32 noundef %1, ptr noundef %2) #0 {
  %4 = alloca ptr, align 8
  %5 = alloca i32, align 4
  %6 = alloca ptr, align 8
  %7 = alloca ptr, align 8
  store ptr %0, ptr %4, align 8
  store i32 %1, ptr %5, align 4
  store ptr %2, ptr %6, align 8
  store ptr null, ptr %7, align 8
  %8 = load ptr, ptr %6, align 8
  %9 = getelementptr inbounds %struct.cli_ctx_tag, ptr %8, i32 0, i32 14
  %10 = load ptr, ptr %9, align 8
  %11 = getelementptr inbounds %struct.cl_fmap, ptr %10, i32 0, i32 13
  %12 = load i64, ptr %11, align 8
  %13 = load ptr, ptr %4, align 8
  %14 = getelementptr inbounds %struct.cli_target_info, ptr %13, i32 0, i32 0
  store i64 %12, ptr %14, align 8
  %15 = load i32, ptr %5, align 4
  switch i32 %15, label %19 [
    i32 1, label %16
    i32 6, label %17
    i32 9, label %18
  ]

16:                                               ; preds = %3
  store ptr @cli_pe_targetinfo, ptr %7, align 8
  br label %20

17:                                               ; preds = %3
  store ptr @cli_elfheader, ptr %7, align 8
  br label %20

18:                                               ; preds = %3
  store ptr @cli_machoheader, ptr %7, align 8
  br label %20

19:                                               ; preds = %3
  br label %33

20:                                               ; preds = %18, %17, %16
  %21 = load ptr, ptr %7, align 8
  %22 = load ptr, ptr %6, align 8
  %23 = load ptr, ptr %4, align 8
  %24 = getelementptr inbounds %struct.cli_target_info, ptr %23, i32 0, i32 1
  %25 = call i32 %21(ptr noundef %22, ptr noundef %24)
  %26 = icmp ne i32 0, %25
  br i1 %26, label %27, label %30

27:                                               ; preds = %20
  %28 = load ptr, ptr %4, align 8
  %29 = getelementptr inbounds %struct.cli_target_info, ptr %28, i32 0, i32 2
  store i32 -1, ptr %29, align 8
  br label %33

30:                                               ; preds = %20
  %31 = load ptr, ptr %4, align 8
  %32 = getelementptr inbounds %struct.cli_target_info, ptr %31, i32 0, i32 2
  store i32 1, ptr %32, align 8
  br label %33

33:                                               ; preds = %30, %27, %19
  ret void
}