; Function Attrs: nounwind uwtable
define void @cli_targetinfo(ptr noundef %0, i32 noundef %1, ptr noundef %2) local_unnamed_addr #0 {
  %4 = getelementptr inbounds i8, ptr %2, i64 96
  %5 = load ptr, ptr %4, align 8
  %6 = getelementptr inbounds i8, ptr %5, i64 88
  %7 = load i64, ptr %6, align 8
  store i64 %7, ptr %0, align 8
  switch i32 %1, label %13 [
    i32 1, label %.sink.split
    i32 6, label %8
    i32 9, label %9
  ]

8:                                                ; preds = %3
  br label %.sink.split

9:                                                ; preds = %3
  br label %.sink.split

.sink.split:                                      ; preds = %3, %9, %8
  %.0 = phi ptr [ @cli_machoheader, %9 ], [ @cli_elfheader, %8 ], [ @cli_pe_targetinfo, %3 ]
  %10 = getelementptr inbounds i8, ptr %0, i64 8
  %11 = tail call i32 %.0(ptr noundef nonnull %2, ptr noundef nonnull %10) #12, !callees !4
  %.not = icmp eq i32 %11, 0
  %12 = getelementptr inbounds i8, ptr %0, i64 384
  %. = select i1 %.not, i32 1, i32 -1
  store i32 %., ptr %12, align 8
  br label %13

13:                                               ; preds = %.sink.split, %3
  ret void
}